; ModuleID = 'source-C-CXX/7/793.c'
source_filename = "source-C-CXX/7/793.c"
target datalayout = "e-m:e-p270:32:32-p271:32:32-p272:64:64-i64:64-f80:128-n8:16:32:64-S128"
target triple = "x86_64-pc-linux-gnu"

@.str = private unnamed_addr constant [5 x i8] c"%d%d\00", align 1
@.str.1 = private unnamed_addr constant [3 x i8] c"%d\00", align 1
@.str.2 = private unnamed_addr constant [4 x i8] c" %d\00", align 1

; Function Attrs: nofree nounwind sspstrong uwtable
define dso_local i32 @main() local_unnamed_addr #0 {
  %1 = alloca i64, align 8
  %2 = alloca i64, align 8
  %3 = alloca i64, align 8
  %4 = alloca [100001 x i32], align 16
  %5 = bitcast i64* %1 to i8*
  call void @llvm.lifetime.start.p0i8(i64 8, i8* nonnull %5) #4
  %6 = bitcast i64* %2 to i8*
  call void @llvm.lifetime.start.p0i8(i64 8, i8* nonnull %6) #4
  %7 = bitcast i64* %3 to i8*
  call void @llvm.lifetime.start.p0i8(i64 8, i8* nonnull %7) #4
  %8 = bitcast [100001 x i32]* %4 to i8*
  call void @llvm.lifetime.start.p0i8(i64 400004, i8* nonnull %8) #4
  call void @llvm.memset.p0i8.i64(i8* noundef nonnull align 16 dereferenceable(400004) %8, i8 0, i64 400004, i1 false)
  %9 = call i32 (i8*, ...) @__isoc99_scanf(i8* getelementptr inbounds ([5 x i8], [5 x i8]* @.str, i64 0, i64 0), i64* nonnull %1, i64* nonnull %2)
  %10 = load i64, i64* %1, align 8, !tbaa !5
  %11 = icmp slt i64 %10, 1
  br i1 %11, label %22, label %12

12:                                               ; preds = %0, %12
  %13 = phi i64 [ %19, %12 ], [ 1, %0 ]
  %14 = call i32 (i8*, ...) @__isoc99_scanf(i8* getelementptr inbounds ([3 x i8], [3 x i8]* @.str.1, i64 0, i64 0), i64* nonnull %3)
  %15 = load i64, i64* %3, align 8, !tbaa !5
  %16 = getelementptr inbounds [100001 x i32], [100001 x i32]* %4, i64 0, i64 %15
  %17 = load i32, i32* %16, align 4, !tbaa !9
  %18 = add nsw i32 %17, 1
  store i32 %18, i32* %16, align 4, !tbaa !9
  %19 = add nuw nsw i64 %13, 1
  %20 = load i64, i64* %1, align 8, !tbaa !5
  %21 = icmp slt i64 %13, %20
  br i1 %21, label %12, label %22, !llvm.loop !11

22:                                               ; preds = %12, %0
  br label %23

23:                                               ; preds = %22, %43
  %24 = phi i64 [ %44, %43 ], [ 0, %22 ]
  %25 = phi i64 [ %45, %43 ], [ 0, %22 ]
  %26 = getelementptr inbounds [100001 x i32], [100001 x i32]* %4, i64 0, i64 %25
  %27 = load i32, i32* %26, align 4, !tbaa !9
  %28 = icmp slt i32 %27, 1
  br i1 %28, label %43, label %29

29:                                               ; preds = %23
  %30 = zext i32 %27 to i64
  %31 = icmp eq i64 %24, 0
  %32 = select i1 %31, i8* getelementptr inbounds ([3 x i8], [3 x i8]* @.str.1, i64 0, i64 0), i8* getelementptr inbounds ([4 x i8], [4 x i8]* @.str.2, i64 0, i64 0)
  %33 = call i32 (i8*, ...) @printf(i8* nonnull dereferenceable(1) %32, i64 %25)
  %34 = icmp eq i32 %27, 1
  br i1 %34, label %43, label %38

35:                                               ; preds = %43
  %36 = load i64, i64* %2, align 8, !tbaa !5
  %37 = icmp slt i64 %36, 1
  br i1 %37, label %55, label %47

38:                                               ; preds = %29, %38
  %39 = phi i64 [ %41, %38 ], [ 2, %29 ]
  %40 = call i32 (i8*, ...) @printf(i8* nonnull dereferenceable(1) getelementptr inbounds ([4 x i8], [4 x i8]* @.str.2, i64 0, i64 0), i64 %25)
  %41 = add nuw nsw i64 %39, 1
  %42 = icmp eq i64 %39, %30
  br i1 %42, label %43, label %38, !llvm.loop !13

43:                                               ; preds = %38, %29, %23
  %44 = phi i64 [ %24, %23 ], [ 1, %29 ], [ 1, %38 ]
  store i32 0, i32* %26, align 4, !tbaa !9
  %45 = add nuw nsw i64 %25, 1
  %46 = icmp eq i64 %45, 100001
  br i1 %46, label %35, label %23, !llvm.loop !15

47:                                               ; preds = %35, %47
  %48 = phi i64 [ %52, %47 ], [ 1, %35 ]
  %49 = call i32 (i8*, ...) @__isoc99_scanf(i8* getelementptr inbounds ([3 x i8], [3 x i8]* @.str.1, i64 0, i64 0), i64* nonnull %3)
  %50 = load i64, i64* %3, align 8, !tbaa !5
  %51 = getelementptr inbounds [100001 x i32], [100001 x i32]* %4, i64 0, i64 %50
  store i32 1, i32* %51, align 4, !tbaa !9
  %52 = add nuw nsw i64 %48, 1
  %53 = load i64, i64* %2, align 8, !tbaa !5
  %54 = icmp slt i64 %48, %53
  br i1 %54, label %47, label %55, !llvm.loop !16

55:                                               ; preds = %47, %35
  br label %56

56:                                               ; preds = %55, %68
  %57 = phi i64 [ %69, %68 ], [ 0, %55 ]
  %58 = getelementptr inbounds [100001 x i32], [100001 x i32]* %4, i64 0, i64 %57
  %59 = load i32, i32* %58, align 4, !tbaa !9
  %60 = icmp slt i32 %59, 1
  br i1 %60, label %68, label %61

61:                                               ; preds = %56
  %62 = zext i32 %59 to i64
  br label %63

63:                                               ; preds = %61, %63
  %64 = phi i64 [ %66, %63 ], [ 1, %61 ]
  %65 = call i32 (i8*, ...) @printf(i8* nonnull dereferenceable(1) getelementptr inbounds ([4 x i8], [4 x i8]* @.str.2, i64 0, i64 0), i64 %57)
  %66 = add nuw nsw i64 %64, 1
  %67 = icmp eq i64 %64, %62
  br i1 %67, label %68, label %63, !llvm.loop !17

68:                                               ; preds = %63, %56
  store i32 0, i32* %58, align 4, !tbaa !9
  %69 = add nuw nsw i64 %57, 1
  %70 = icmp eq i64 %69, 100001
  br i1 %70, label %71, label %56, !llvm.loop !18

71:                                               ; preds = %68
  call void @llvm.lifetime.end.p0i8(i64 400004, i8* nonnull %8) #4
  call void @llvm.lifetime.end.p0i8(i64 8, i8* nonnull %7) #4
  call void @llvm.lifetime.end.p0i8(i64 8, i8* nonnull %6) #4
  call void @llvm.lifetime.end.p0i8(i64 8, i8* nonnull %5) #4
  ret i32 0
}

; Function Attrs: argmemonly mustprogress nofree nosync nounwind willreturn
declare void @llvm.lifetime.start.p0i8(i64 immarg, i8* nocapture) #1

; Function Attrs: argmemonly mustprogress nofree nounwind willreturn writeonly
declare void @llvm.memset.p0i8.i64(i8* nocapture writeonly, i8, i64, i1 immarg) #2

; Function Attrs: nofree nounwind
declare noundef i32 @__isoc99_scanf(i8* nocapture noundef readonly, ...) local_unnamed_addr #3

; Function Attrs: nofree nounwind
declare noundef i32 @printf(i8* nocapture noundef readonly, ...) local_unnamed_addr #3

; Function Attrs: argmemonly mustprogress nofree nosync nounwind willreturn
declare void @llvm.lifetime.end.p0i8(i64 immarg, i8* nocapture) #1


!llvm.module.flags = !{!0, !1, !2, !3}
!llvm.ident = !{!4}

!0 = !{i32 1, !"wchar_size", i32 4}
!1 = !{i32 7, !"PIC Level", i32 2}
!2 = !{i32 7, !"PIE Level", i32 2}
!3 = !{i32 7, !"uwtable", i32 1}
!4 = !{!"clang version 13.0.0"}
!5 = !{!6, !6, i64 0}
!6 = !{!"long", !7, i64 0}
!7 = !{!"omnipotent char", !8, i64 0}
!8 = !{!"Simple C/C++ TBAA"}
!9 = !{!10, !10, i64 0}
!10 = !{!"int", !7, i64 0}
!11 = distinct !{!11, !12}
!12 = !{!"llvm.loop.mustprogress"}
!13 = distinct !{!13, !12, !14}
!14 = !{!"llvm.loop.peeled.count", i32 1}
!15 = distinct !{!15, !12}
!16 = distinct !{!16, !12}
!17 = distinct !{!17, !12}
!18 = distinct !{!18, !12}
